target datalayout = "e-m:e-p270:32:32-p271:32:32-p272:64:64-i64:64-i128:128-f80:128-n8:16:32:64-S128"
target triple = "x86_64-pc-linux-gnu"

%struct._address = type { i32, i32, ptr, ptr }
%struct.sm_fragment_params_key = type { ptr, i32, %struct._address, %struct._address, i32 }

; Function Attrs: null_pointer_is_valid sspstrong uwtable
define internal i32 @sm_fragment_params_hash(ptr noundef %0) #0 {
  %2 = alloca ptr, align 8
  %3 = alloca ptr, align 8
  %4 = alloca i32, align 4
  store ptr %0, ptr %2, align 8
  call void @llvm.lifetime.start.p0(i64 8, ptr %3) #13
  %5 = load ptr, ptr %2, align 8
  store ptr %5, ptr %3, align 8
  call void @llvm.lifetime.start.p0(i64 4, ptr %4) #13
  %6 = load ptr, ptr %3, align 8
  %7 = getelementptr inbounds nuw %struct.sm_fragment_params_key, ptr %6, i32 0, i32 0
  %8 = load ptr, ptr %7, align 8
  %9 = call i32 @wmem_str_hash(ptr noundef %8)
  %10 = load ptr, ptr %3, align 8
  %11 = getelementptr inbounds nuw %struct.sm_fragment_params_key, ptr %10, i32 0, i32 4
  %12 = load i32, ptr %11, align 8
  %13 = xor i32 %9, %12
  %14 = load ptr, ptr %3, align 8
  %15 = getelementptr inbounds nuw %struct.sm_fragment_params_key, ptr %14, i32 0, i32 1
  %16 = load i32, ptr %15, align 8
  %17 = add i32 %13, %16
  store i32 %17, ptr %4, align 4
  %18 = load i32, ptr %4, align 4
  call void @llvm.lifetime.end.p0(i64 4, ptr %4) #13
  call void @llvm.lifetime.end.p0(i64 8, ptr %3) #13
  ret i32 %18
}