; Function Attrs: null_pointer_is_valid sspstrong uwtable
define internal i32 @sm_fragment_params_hash(ptr noundef readonly captures(none) %0) #0 {
  %2 = load ptr, ptr %0, align 8
  %3 = tail call i32 @wmem_str_hash(ptr noundef %2)
  %4 = getelementptr inbounds nuw i8, ptr %0, i64 64
  %5 = load i32, ptr %4, align 8
  %6 = xor i32 %5, %3
  %7 = getelementptr inbounds nuw i8, ptr %0, i64 8
  %8 = load i32, ptr %7, align 8
  %9 = add i32 %6, %8
  ret i32 %9
}